ARM GAS  C:\Users\lucas\AppData\Local\Temp\ccl7keyf.s 			page 1


   1              		.cpu cortex-m4
   2              		.eabi_attribute 27, 1
   3              		.eabi_attribute 28, 1
   4              		.eabi_attribute 20, 1
   5              		.eabi_attribute 21, 1
   6              		.eabi_attribute 23, 3
   7              		.eabi_attribute 24, 1
   8              		.eabi_attribute 25, 1
   9              		.eabi_attribute 26, 1
  10              		.eabi_attribute 30, 2
  11              		.eabi_attribute 34, 1
  12              		.eabi_attribute 18, 4
  13              		.file	"communications.c"
  14              		.text
  15              	.Ltext0:
  16              		.cfi_sections	.debug_frame
  17              		.section	.text.SendFloatToComputer,"ax",%progbits
  18              		.align	1
  19              		.p2align 4,,15
  20              		.global	SendFloatToComputer
  21              		.syntax unified
  22              		.thumb
  23              		.thumb_func
  24              		.fpu fpv4-sp-d16
  25              		.type	SendFloatToComputer, %function
  26              	SendFloatToComputer:
  27              	.LFB256:
  28              		.file 1 "./Src/communications.c"
  29              		.loc 1 11 0
  30              		.cfi_startproc
  31              		@ args = 0, pretend = 0, frame = 16
  32              		@ frame_needed = 0, uses_anonymous_args = 0
  33              	.LVL0:
  34 0000 70B5     		push	{r4, r5, r6, lr}
  35              		.cfi_def_cfa_offset 16
  36              		.cfi_offset 4, -16
  37              		.cfi_offset 5, -12
  38              		.cfi_offset 6, -8
  39              		.cfi_offset 14, -4
  40 0002 124D     		ldr	r5, .L6
  41              		.loc 1 12 0
  42 0004 0368     		ldr	r3, [r0]
  43              		.loc 1 11 0
  44 0006 84B0     		sub	sp, sp, #16
  45              		.cfi_def_cfa_offset 32
  46              		.loc 1 11 0
  47 0008 0446     		mov	r4, r0
  48 000a ADF80620 		strh	r2, [sp, #6]	@ movhi
  49 000e 2A68     		ldr	r2, [r5]
  50              	.LVL1:
  51              		.loc 1 12 0
  52 0010 1B68     		ldr	r3, [r3]
  53              		.loc 1 11 0
  54 0012 0392     		str	r2, [sp, #12]
  55 0014 0E46     		mov	r6, r1
  56              		.loc 1 12 0
  57 0016 0522     		movs	r2, #5
ARM GAS  C:\Users\lucas\AppData\Local\Temp\ccl7keyf.s 			page 2


  58 0018 0D49     		ldr	r1, .L6+4
  59              	.LVL2:
  60 001a 9847     		blx	r3
  61              	.LVL3:
  62              		.loc 1 13 0
  63 001c 2368     		ldr	r3, [r4]
  64 001e 0222     		movs	r2, #2
  65 0020 1B68     		ldr	r3, [r3]
  66 0022 0DF10601 		add	r1, sp, #6
  67 0026 2046     		mov	r0, r4
  68 0028 9847     		blx	r3
  69              	.LVL4:
  70              		.loc 1 14 0
  71 002a 2368     		ldr	r3, [r4]
  72 002c BDF80620 		ldrh	r2, [sp, #6]
  73 0030 1B68     		ldr	r3, [r3]
  74 0032 9200     		lsls	r2, r2, #2
  75 0034 3146     		mov	r1, r6
  76 0036 2046     		mov	r0, r4
  77 0038 9847     		blx	r3
  78              	.LVL5:
  79              		.loc 1 15 0
  80 003a 039A     		ldr	r2, [sp, #12]
  81 003c 2B68     		ldr	r3, [r5]
  82 003e 9A42     		cmp	r2, r3
  83 0040 01D1     		bne	.L5
  84 0042 04B0     		add	sp, sp, #16
  85              		.cfi_remember_state
  86              		.cfi_def_cfa_offset 16
  87              		@ sp needed
  88 0044 70BD     		pop	{r4, r5, r6, pc}
  89              	.LVL6:
  90              	.L5:
  91              		.cfi_restore_state
  92 0046 FFF7FEFF 		bl	__stack_chk_fail
  93              	.LVL7:
  94              	.L7:
  95 004a 00BF     		.align	2
  96              	.L6:
  97 004c 00000000 		.word	__stack_chk_guard
  98 0050 00000000 		.word	.LC0
  99              		.cfi_endproc
 100              	.LFE256:
 101              		.size	SendFloatToComputer, .-SendFloatToComputer
 102              		.section	.text.ReceiveInt16FromComputer,"ax",%progbits
 103              		.align	1
 104              		.p2align 4,,15
 105              		.global	ReceiveInt16FromComputer
 106              		.syntax unified
 107              		.thumb
 108              		.thumb_func
 109              		.fpu fpv4-sp-d16
 110              		.type	ReceiveInt16FromComputer, %function
 111              	ReceiveInt16FromComputer:
 112              	.LFB257:
 113              		.loc 1 22 0
 114              		.cfi_startproc
ARM GAS  C:\Users\lucas\AppData\Local\Temp\ccl7keyf.s 			page 3


 115              		@ args = 0, pretend = 0, frame = 8
 116              		@ frame_needed = 0, uses_anonymous_args = 0
 117              	.LVL8:
 118 0000 2DE9F041 		push	{r4, r5, r6, r7, r8, lr}
 119              		.cfi_def_cfa_offset 24
 120              		.cfi_offset 4, -24
 121              		.cfi_offset 5, -20
 122              		.cfi_offset 6, -16
 123              		.cfi_offset 7, -12
 124              		.cfi_offset 8, -8
 125              		.cfi_offset 14, -4
 126 0004 474D     		ldr	r5, .L37
 127              		.loc 1 31 0
 128 0006 0368     		ldr	r3, [r0]
 129              		.loc 1 22 0
 130 0008 2E68     		ldr	r6, [r5]
 131              		.loc 1 31 0
 132 000a DB68     		ldr	r3, [r3, #12]
 133              		.loc 1 22 0
 134 000c 82B0     		sub	sp, sp, #8
 135              		.cfi_def_cfa_offset 32
 136              		.loc 1 25 0
 137 000e 4FF0000C 		mov	ip, #0
 138              		.loc 1 22 0
 139 0012 0196     		str	r6, [sp, #4]
 140              		.loc 1 25 0
 141 0014 ADF802C0 		strh	ip, [sp, #2]	@ movhi
 142              	.LVL9:
 143              		.loc 1 22 0
 144 0018 0446     		mov	r4, r0
 145 001a 0E46     		mov	r6, r1
 146 001c 1746     		mov	r7, r2
 147              		.loc 1 31 0
 148 001e 9847     		blx	r3
 149              	.LVL10:
 150 0020 C0B2     		uxtb	r0, r0
 151 0022 8DF80000 		strb	r0, [sp]
 152 0026 04E0     		b	.L9
 153              	.L33:
 154 0028 2046     		mov	r0, r4
 155 002a 9847     		blx	r3
 156              	.LVL11:
 157 002c C0B2     		uxtb	r0, r0
 158 002e 8DF80000 		strb	r0, [sp]
 159              	.L9:
 160              		.loc 1 37 0
 161 0032 9DF80030 		ldrb	r3, [sp]	@ zero_extendqisi2
 162              	.L10:
 163              		.loc 1 42 0
 164 0036 9DF80030 		ldrb	r3, [sp]	@ zero_extendqisi2
 165 003a 542B     		cmp	r3, #84
 166              		.loc 1 44 0
 167 003c 18BF     		it	ne
 168 003e 9DF80030 		ldrbne	r3, [sp]	@ zero_extendqisi2
 169              		.loc 1 49 0
 170 0042 9DF80030 		ldrb	r3, [sp]	@ zero_extendqisi2
 171 0046 412B     		cmp	r3, #65
ARM GAS  C:\Users\lucas\AppData\Local\Temp\ccl7keyf.s 			page 4


 172              		.loc 1 51 0
 173 0048 18BF     		it	ne
 174 004a 9DF80030 		ldrbne	r3, [sp]	@ zero_extendqisi2
 175              		.loc 1 56 0
 176 004e 9DF80030 		ldrb	r3, [sp]	@ zero_extendqisi2
 177 0052 522B     		cmp	r3, #82
 178              		.loc 1 58 0
 179 0054 18BF     		it	ne
 180 0056 9DF80030 		ldrbne	r3, [sp]	@ zero_extendqisi2
 181              		.loc 1 63 0
 182 005a 9DF80020 		ldrb	r2, [sp]	@ zero_extendqisi2
 183 005e 2368     		ldr	r3, [r4]
 184 0060 542A     		cmp	r2, #84
 185 0062 DB68     		ldr	r3, [r3, #12]
 186 0064 09D0     		beq	.L14
 187              		.loc 1 65 0
 188 0066 9DF80020 		ldrb	r2, [sp]	@ zero_extendqisi2
 189 006a 532A     		cmp	r2, #83
 190 006c DCD1     		bne	.L33
 191              		.loc 1 31 0
 192 006e 2046     		mov	r0, r4
 193 0070 9847     		blx	r3
 194              	.LVL12:
 195 0072 C0B2     		uxtb	r0, r0
 196 0074 8DF80000 		strb	r0, [sp]
 197 0078 DDE7     		b	.L10
 198              	.L14:
 199              		.loc 1 73 0
 200 007a 2046     		mov	r0, r4
 201 007c 9847     		blx	r3
 202              	.LVL13:
 203              		.loc 1 74 0
 204 007e 2368     		ldr	r3, [r4]
 205              		.loc 1 73 0
 206 0080 C0B2     		uxtb	r0, r0
 207              		.loc 1 74 0
 208 0082 DB68     		ldr	r3, [r3, #12]
 209              		.loc 1 73 0
 210 0084 8DF80000 		strb	r0, [sp]
 211              		.loc 1 74 0
 212 0088 2046     		mov	r0, r4
 213 008a 9847     		blx	r3
 214              	.LVL14:
 215 008c C0B2     		uxtb	r0, r0
 216 008e 8DF80100 		strb	r0, [sp, #1]
 217              		.loc 1 78 0
 218 0092 9DF80030 		ldrb	r3, [sp]	@ zero_extendqisi2
 219 0096 9DF80120 		ldrb	r2, [sp, #1]	@ zero_extendqisi2
 220 009a 43EA0223 		orr	r3, r3, r2, lsl #8
 221 009e ADF80230 		strh	r3, [sp, #2]	@ movhi
 222              		.loc 1 80 0
 223 00a2 BDF80230 		ldrh	r3, [sp, #2]
 224 00a6 B7EB530F 		cmp	r7, r3, lsr #1
 225 00aa 0AD0     		beq	.L35
 226              	.LVL15:
 227              	.L17:
 228              		.loc 1 91 0
ARM GAS  C:\Users\lucas\AppData\Local\Temp\ccl7keyf.s 			page 5


 229 00ac BDF80200 		ldrh	r0, [sp, #2]
 230              		.loc 1 93 0
 231 00b0 019A     		ldr	r2, [sp, #4]
 232 00b2 2B68     		ldr	r3, [r5]
 233 00b4 9A42     		cmp	r2, r3
 234 00b6 4FEA5000 		lsr	r0, r0, #1
 235 00ba 30D1     		bne	.L36
 236 00bc 02B0     		add	sp, sp, #8
 237              		.cfi_remember_state
 238              		.cfi_def_cfa_offset 24
 239              		@ sp needed
 240 00be BDE8F081 		pop	{r4, r5, r6, r7, r8, pc}
 241              	.LVL16:
 242              	.L35:
 243              		.cfi_restore_state
 244              		.loc 1 81 0
 245 00c2 BDF80230 		ldrh	r3, [sp, #2]
 246 00c6 5B08     		lsrs	r3, r3, #1
 247 00c8 F0D0     		beq	.L17
 248              		.loc 1 87 0
 249 00ca 4FF00008 		mov	r8, #0
 250              		.loc 1 81 0
 251 00ce 0027     		movs	r7, #0
 252              	.LVL17:
 253              	.L18:
 254              		.loc 1 83 0 discriminator 3
 255 00d0 2368     		ldr	r3, [r4]
 256 00d2 2046     		mov	r0, r4
 257 00d4 DB68     		ldr	r3, [r3, #12]
 258 00d6 9847     		blx	r3
 259              	.LVL18:
 260              		.loc 1 84 0 discriminator 3
 261 00d8 2368     		ldr	r3, [r4]
 262              		.loc 1 83 0 discriminator 3
 263 00da C0B2     		uxtb	r0, r0
 264              		.loc 1 84 0 discriminator 3
 265 00dc DB68     		ldr	r3, [r3, #12]
 266              		.loc 1 83 0 discriminator 3
 267 00de 8DF80000 		strb	r0, [sp]
 268              		.loc 1 84 0 discriminator 3
 269 00e2 2046     		mov	r0, r4
 270 00e4 9847     		blx	r3
 271              	.LVL19:
 272 00e6 C0B2     		uxtb	r0, r0
 273 00e8 8DF80100 		strb	r0, [sp, #1]
 274              		.loc 1 86 0 discriminator 3
 275 00ec 9DF80030 		ldrb	r3, [sp]	@ zero_extendqisi2
 276 00f0 9DF80110 		ldrb	r1, [sp, #1]	@ zero_extendqisi2
 277              		.loc 1 81 0 discriminator 3
 278 00f4 BDF80220 		ldrh	r2, [sp, #2]
 279              		.loc 1 87 0 discriminator 3
 280 00f8 C6F80480 		str	r8, [r6, #4]	@ float
 281              		.loc 1 86 0 discriminator 3
 282 00fc 43EA0123 		orr	r3, r3, r1, lsl #8
 283 0100 1BB2     		sxth	r3, r3
 284 0102 07EE903A 		vmov	s15, r3	@ int
 285              		.loc 1 81 0 discriminator 3
ARM GAS  C:\Users\lucas\AppData\Local\Temp\ccl7keyf.s 			page 6


 286 0106 0137     		adds	r7, r7, #1
 287              	.LVL20:
 288              		.loc 1 86 0 discriminator 3
 289 0108 F8EEE77A 		vcvt.f32.s32	s15, s15
 290              		.loc 1 81 0 discriminator 3
 291 010c BFB2     		uxth	r7, r7
 292              	.LVL21:
 293 010e B7EB520F 		cmp	r7, r2, lsr #1
 294              		.loc 1 86 0 discriminator 3
 295 0112 C6ED007A 		vstr.32	s15, [r6]
 296 0116 06F10806 		add	r6, r6, #8
 297              		.loc 1 81 0 discriminator 3
 298 011a D9D3     		bcc	.L18
 299 011c C6E7     		b	.L17
 300              	.LVL22:
 301              	.L36:
 302              		.loc 1 93 0
 303 011e FFF7FEFF 		bl	__stack_chk_fail
 304              	.LVL23:
 305              	.L38:
 306 0122 00BF     		.align	2
 307              	.L37:
 308 0124 00000000 		.word	__stack_chk_guard
 309              		.cfi_endproc
 310              	.LFE257:
 311              		.size	ReceiveInt16FromComputer, .-ReceiveInt16FromComputer
 312              		.section	.rodata.SendFloatToComputer.str1.4,"aMS",%progbits,1
 313              		.align	2
 314              	.LC0:
 315 0000 53544152 		.ascii	"START\000"
 315      5400
 316              		.text
 317              	.Letext0:
 318              		.file 2 "c:\\users\\lucas\\desktop\\epfl\\microinformatique\\eclipse_e-puck2\\tools\\gcc-arm-none-
 319              		.file 3 "c:\\users\\lucas\\desktop\\epfl\\microinformatique\\eclipse_e-puck2\\tools\\gcc-arm-none-
 320              		.file 4 "c:\\users\\lucas\\desktop\\epfl\\microinformatique\\eclipse_e-puck2\\tools\\gcc-arm-none-
 321              		.file 5 "e-puck2_main-processor/ChibiOS//os/rt/ports/ARMCMx/compilers/GCC/chtypes.h"
 322              		.file 6 "e-puck2_main-processor/ChibiOS//os/rt/include/chsystypes.h"
 323              		.file 7 "e-puck2_main-processor/ChibiOS//os/rt/include/chschd.h"
 324              		.file 8 "e-puck2_main-processor/ChibiOS//os/ext/CMSIS/include/core_cm4.h"
 325              		.file 9 "e-puck2_main-processor/ChibiOS//os/ext/CMSIS/ST/system_stm32f4xx.h"
 326              		.file 10 "e-puck2_main-processor/ChibiOS//os/ext/CMSIS/ST/stm32f407xx.h"
 327              		.file 11 "e-puck2_main-processor/ChibiOS//os/rt/ports/ARMCMx/chcore.h"
 328              		.file 12 "e-puck2_main-processor/ChibiOS//os/rt/ports/ARMCMx/chcore_v7m.h"
 329              		.file 13 "e-puck2_main-processor/ChibiOS//os/rt/include/chdebug.h"
 330              		.file 14 "e-puck2_main-processor/ChibiOS//os/rt/include/chtm.h"
 331              		.file 15 "e-puck2_main-processor/ChibiOS//os/rt/include/chstats.h"
 332              		.file 16 "e-puck2_main-processor/ChibiOS//os/rt/include/chsem.h"
 333              		.file 17 "e-puck2_main-processor/ChibiOS//os/rt/include/chmtx.h"
 334              		.file 18 "e-puck2_main-processor/ChibiOS//os/rt/include/chregistry.h"
 335              		.file 19 "e-puck2_main-processor/ChibiOS//os/rt/include/chevents.h"
 336              		.file 20 "e-puck2_main-processor/ChibiOS//os/rt/include/chqueues.h"
 337              		.file 21 "e-puck2_main-processor/ChibiOS//os/rt/include/chstreams.h"
 338              		.file 22 "e-puck2_main-processor/ChibiOS//os/hal/ports/STM32/STM32F4xx/stm32_dma.h"
 339              		.file 23 "e-puck2_main-processor/ChibiOS//os/hal/include/hal_ioblock.h"
 340              		.file 24 "e-puck2_main-processor/ChibiOS//os/hal/ports/STM32/LLD/GPIOv2/pal_lld.h"
 341              		.file 25 "e-puck2_main-processor/ChibiOS//os/hal/include/adc.h"
ARM GAS  C:\Users\lucas\AppData\Local\Temp\ccl7keyf.s 			page 7


 342              		.file 26 "e-puck2_main-processor/ChibiOS//os/hal/ports/STM32/STM32F4xx/adc_lld.h"
 343              		.file 27 "e-puck2_main-processor/ChibiOS//os/hal/include/can.h"
 344              		.file 28 "e-puck2_main-processor/ChibiOS//os/hal/ports/STM32/LLD/can_lld.h"
 345              		.file 29 "e-puck2_main-processor/ChibiOS//os/hal/include/dac.h"
 346              		.file 30 "e-puck2_main-processor/ChibiOS//os/hal/ports/STM32/LLD/DACv1/dac_lld.h"
 347              		.file 31 "e-puck2_main-processor/ChibiOS//os/hal/include/ext.h"
 348              		.file 32 "e-puck2_main-processor/ChibiOS//os/hal/ports/STM32/LLD/ext_lld.h"
 349              		.file 33 "e-puck2_main-processor/ChibiOS//os/hal/include/gpt.h"
 350              		.file 34 "e-puck2_main-processor/ChibiOS//os/hal/ports/STM32/LLD/TIMv1/gpt_lld.h"
 351              		.file 35 "e-puck2_main-processor/ChibiOS//os/hal/ports/STM32/LLD/TIMv1/stm32_tim.h"
 352              		.file 36 "e-puck2_main-processor/ChibiOS//os/hal/include/i2c.h"
 353              		.file 37 "e-puck2_main-processor/ChibiOS//os/hal/ports/STM32/LLD/I2Cv1/i2c_lld.h"
 354              		.file 38 "e-puck2_main-processor/ChibiOS//os/hal/include/i2s.h"
 355              		.file 39 "e-puck2_main-processor/ChibiOS//os/hal/ports/STM32/LLD/SPIv1/i2s_lld.h"
 356              		.file 40 "e-puck2_main-processor/ChibiOS//os/hal/include/pwm.h"
 357              		.file 41 "e-puck2_main-processor/ChibiOS//os/hal/ports/STM32/LLD/TIMv1/pwm_lld.h"
 358              		.file 42 "e-puck2_main-processor/ChibiOS//os/hal/include/serial.h"
 359              		.file 43 "e-puck2_main-processor/ChibiOS//os/hal/ports/STM32/LLD/USARTv1/serial_lld.h"
 360              		.file 44 "e-puck2_main-processor/ChibiOS//os/hal/include/sdc.h"
 361              		.file 45 "e-puck2_main-processor/ChibiOS//os/hal/ports/STM32/LLD/sdc_lld.h"
 362              		.file 46 "e-puck2_main-processor/ChibiOS//os/hal/include/spi.h"
 363              		.file 47 "e-puck2_main-processor/ChibiOS//os/hal/ports/STM32/LLD/SPIv1/spi_lld.h"
 364              		.file 48 "e-puck2_main-processor/ChibiOS//os/hal/include/usb.h"
 365              		.file 49 "e-puck2_main-processor/ChibiOS//os/hal/ports/STM32/LLD/OTGv1/usb_lld.h"
 366              		.file 50 "e-puck2_main-processor/ChibiOS//os/hal/ports/STM32/LLD/OTGv1/stm32_otg.h"
 367              		.file 51 "e-puck2_main-processor/ChibiOS_ext/os/hal/include/../ports/STM32/STM32F4xx/dcmi_lld.h"
 368              		.file 52 "c:\\users\\lucas\\desktop\\epfl\\microinformatique\\eclipse_e-puck2\\tools\\gcc-arm-none
 369              		.file 53 "c:\\users\\lucas\\desktop\\epfl\\microinformatique\\eclipse_e-puck2\\tools\\gcc-arm-none
 370              		.file 54 "c:\\users\\lucas\\desktop\\epfl\\microinformatique\\eclipse_e-puck2\\tools\\gcc-arm-none
 371              		.file 55 "e-puck2_main-processor/src/msgbus/messagebus.h"
 372              		.file 56 "c:\\users\\lucas\\desktop\\epfl\\microinformatique\\eclipse_e-puck2\\tools\\gcc-arm-none
 373              		.file 57 "c:\\users\\lucas\\desktop\\epfl\\microinformatique\\eclipse_e-puck2\\tools\\gcc-arm-none
 374              		.file 58 "e-puck2_main-processor/src/parameter/parameter.h"
 375              		.file 59 "./Inc/main.h"