ARM GAS  C:\Users\lucas\AppData\Local\Temp\ccB1TIua.s 			page 1


   1              		.cpu cortex-m4
   2              		.eabi_attribute 27, 1
   3              		.eabi_attribute 28, 1
   4              		.eabi_attribute 20, 1
   5              		.eabi_attribute 21, 1
   6              		.eabi_attribute 23, 3
   7              		.eabi_attribute 24, 1
   8              		.eabi_attribute 25, 1
   9              		.eabi_attribute 26, 1
  10              		.eabi_attribute 30, 2
  11              		.eabi_attribute 34, 1
  12              		.eabi_attribute 18, 4
  13              		.file	"main.c"
  14              		.text
  15              	.Ltext0:
  16              		.cfi_sections	.debug_frame
  17              		.section	.text.startup.main,"ax",%progbits
  18              		.align	1
  19              		.p2align 4,,15
  20              		.global	main
  21              		.syntax unified
  22              		.thumb
  23              		.thumb_func
  24              		.fpu fpv4-sp-d16
  25              		.type	main, %function
  26              	main:
  27              	.LFB294:
  28              		.file 1 "./Src/main.c"
  29              		.loc 1 34 0
  30              		.cfi_startproc
  31              		@ Volatile: function does not return.
  32              		@ args = 0, pretend = 0, frame = 8
  33              		@ frame_needed = 0, uses_anonymous_args = 0
  34 0000 00B5     		push	{lr}
  35              		.cfi_def_cfa_offset 4
  36              		.cfi_offset 14, -4
  37 0002 164B     		ldr	r3, .L6
  38              		.loc 1 61 0
  39 0004 164C     		ldr	r4, .L6+4
  40              		.loc 1 34 0
  41 0006 1B68     		ldr	r3, [r3]
  42 0008 83B0     		sub	sp, sp, #12
  43              		.cfi_def_cfa_offset 16
  44              		.loc 1 34 0
  45 000a 0193     		str	r3, [sp, #4]
  46              		.loc 1 36 0
  47 000c FFF7FEFF 		bl	halInit
  48              	.LVL0:
  49              		.loc 1 37 0
  50 0010 FFF7FEFF 		bl	chSysInit
  51              	.LVL1:
  52              		.loc 1 38 0
  53 0014 FFF7FEFF 		bl	mpu_init
  54              	.LVL2:
  55              	.LBB4:
  56              	.LBB5:
  57              		.loc 1 30 0
ARM GAS  C:\Users\lucas\AppData\Local\Temp\ccB1TIua.s 			page 2


  58 0018 1248     		ldr	r0, .L6+8
  59 001a 1349     		ldr	r1, .L6+12
  60              	.LBE5:
  61              	.LBE4:
  62              		.loc 1 62 0
  63 001c 0546     		mov	r5, r0
  64              	.LBB7:
  65              	.LBB6:
  66              		.loc 1 30 0
  67 001e FFF7FEFF 		bl	sdStart
  68              	.LVL3:
  69              	.LBE6:
  70              	.LBE7:
  71              		.loc 1 43 0
  72 0022 FFF7FEFF 		bl	usb_start
  73              	.LVL4:
  74              		.loc 1 45 0
  75 0026 FFF7FEFF 		bl	motors_init
  76              	.LVL5:
  77              		.loc 1 54 0
  78 002a 1048     		ldr	r0, .L6+16
  79 002c FFF7FEFF 		bl	mic_start
  80              	.LVL6:
  81              	.L2:
  82              		.loc 1 59 0 discriminator 1
  83 0030 FFF7FEFF 		bl	wait_send_to_computer
  84              	.LVL7:
  85              		.loc 1 61 0 discriminator 1
  86 0034 0420     		movs	r0, #4
  87 0036 FFF7FEFF 		bl	get_audio_buffer_ptr
  88              	.LVL8:
  89 003a 2146     		mov	r1, r4
  90 003c 4FF48062 		mov	r2, #1024
  91 0040 FFF7FEFF 		bl	arm_copy_f32
  92              	.LVL9:
  93              		.loc 1 62 0 discriminator 1
  94 0044 2846     		mov	r0, r5
  95 0046 4FF48062 		mov	r2, #1024
  96 004a 2146     		mov	r1, r4
  97 004c FFF7FEFF 		bl	SendFloatToComputer
  98              	.LVL10:
  99              		.loc 1 64 0 discriminator 1
 100 0050 4FF47A70 		mov	r0, #1000
 101 0054 FFF7FEFF 		bl	chThdSleep
 102              	.LVL11:
 103 0058 EAE7     		b	.L2
 104              	.L7:
 105 005a 00BF     		.align	2
 106              	.L6:
 107 005c 00000000 		.word	__stack_chk_guard
 108 0060 00000000 		.word	send_tab.14900
 109 0064 00000000 		.word	SD3
 110 0068 00000000 		.word	.LANCHOR0
 111 006c 00000000 		.word	processAudioData
 112              		.cfi_endproc
 113              	.LFE294:
 114              		.size	main, .-main
ARM GAS  C:\Users\lucas\AppData\Local\Temp\ccB1TIua.s 			page 3


 115              		.section	.text.__stack_chk_fail,"ax",%progbits
 116              		.align	1
 117              		.p2align 4,,15
 118              		.global	__stack_chk_fail
 119              		.syntax unified
 120              		.thumb
 121              		.thumb_func
 122              		.fpu fpv4-sp-d16
 123              		.type	__stack_chk_fail, %function
 124              	__stack_chk_fail:
 125              	.LFB295:
 126              		.loc 1 72 0
 127              		.cfi_startproc
 128              		@ args = 0, pretend = 0, frame = 8
 129              		@ frame_needed = 0, uses_anonymous_args = 0
 130 0000 00B5     		push	{lr}
 131              		.cfi_def_cfa_offset 4
 132              		.cfi_offset 14, -4
 133 0002 084B     		ldr	r3, .L13
 134 0004 83B0     		sub	sp, sp, #12
 135              		.cfi_def_cfa_offset 16
 136              		.loc 1 72 0
 137 0006 1A68     		ldr	r2, [r3]
 138 0008 0192     		str	r2, [sp, #4]
 139              		.loc 1 73 0
 140 000a 019A     		ldr	r2, [sp, #4]
 141 000c 1B68     		ldr	r3, [r3]
 142 000e 9A42     		cmp	r2, r3
 143 0010 05D1     		bne	.L12
 144 0012 0548     		ldr	r0, .L13+4
 145              		.loc 1 74 0
 146 0014 03B0     		add	sp, sp, #12
 147              		.cfi_remember_state
 148              		.cfi_def_cfa_offset 4
 149              		@ sp needed
 150 0016 5DF804EB 		ldr	lr, [sp], #4
 151              		.cfi_restore 14
 152              		.cfi_def_cfa_offset 0
 153              		.loc 1 73 0
 154 001a FFF7FEBF 		b	chSysHalt
 155              	.LVL12:
 156              	.L12:
 157              		.cfi_restore_state
 158 001e FFF7FEFF 		bl	__stack_chk_fail
 159              	.LVL13:
 160              	.L14:
 161 0022 00BF     		.align	2
 162              	.L13:
 163 0024 00000000 		.word	__stack_chk_guard
 164 0028 00000000 		.word	.LC0
 165              		.cfi_endproc
 166              	.LFE295:
 167              		.size	__stack_chk_fail, .-__stack_chk_fail
 168              		.global	__stack_chk_guard
 169              		.section	.bss.send_tab.14900,"aw",%nobits
 170              		.align	2
 171              		.type	send_tab.14900, %object
ARM GAS  C:\Users\lucas\AppData\Local\Temp\ccB1TIua.s 			page 4


 172              		.size	send_tab.14900, 4096
 173              	send_tab.14900:
 174 0000 00000000 		.space	4096
 174      00000000 
 174      00000000 
 174      00000000 
 174      00000000 
 175              		.section	.data.__stack_chk_guard,"aw",%progbits
 176              		.align	2
 177              		.type	__stack_chk_guard, %object
 178              		.size	__stack_chk_guard, 4
 179              	__stack_chk_guard:
 180 0000 96E3DEE2 		.word	-488709226
 181              		.section	.data.ser_cfg.14895,"aw",%progbits
 182              		.align	2
 183              		.set	.LANCHOR0,. + 0
 184              		.type	ser_cfg.14895, %object
 185              		.size	ser_cfg.14895, 12
 186              	ser_cfg.14895:
 187 0000 00C20100 		.word	115200
 188 0004 0000     		.short	0
 189 0006 0000     		.short	0
 190 0008 0000     		.short	0
 191 000a 0000     		.space	2
 192              		.section	.rodata.__stack_chk_fail.str1.4,"aMS",%progbits,1
 193              		.align	2
 194              	.LC0:
 195 0000 53746163 		.ascii	"Stack smashing detected\000"
 195      6B20736D 
 195      61736869 
 195      6E672064 
 195      65746563 
 196              		.text
 197              	.Letext0:
 198              		.file 2 "c:\\users\\lucas\\desktop\\epfl\\microinformatique\\eclipse_e-puck2\\tools\\gcc-arm-none-
 199              		.file 3 "c:\\users\\lucas\\desktop\\epfl\\microinformatique\\eclipse_e-puck2\\tools\\gcc-arm-none-
 200              		.file 4 "c:\\users\\lucas\\desktop\\epfl\\microinformatique\\eclipse_e-puck2\\tools\\gcc-arm-none-
 201              		.file 5 "c:\\users\\lucas\\desktop\\epfl\\microinformatique\\eclipse_e-puck2\\tools\\gcc-arm-none-
 202              		.file 6 "c:\\users\\lucas\\desktop\\epfl\\microinformatique\\eclipse_e-puck2\\tools\\gcc-arm-none-
 203              		.file 7 "c:\\users\\lucas\\desktop\\epfl\\microinformatique\\eclipse_e-puck2\\tools\\gcc-arm-none-
 204              		.file 8 "c:\\users\\lucas\\desktop\\epfl\\microinformatique\\eclipse_e-puck2\\tools\\gcc-arm-none-
 205              		.file 9 "c:\\users\\lucas\\desktop\\epfl\\microinformatique\\eclipse_e-puck2\\tools\\gcc-arm-none-
 206              		.file 10 "e-puck2_main-processor/ChibiOS//os/rt/ports/ARMCMx/compilers/GCC/chtypes.h"
 207              		.file 11 "e-puck2_main-processor/ChibiOS//os/rt/include/chsystypes.h"
 208              		.file 12 "e-puck2_main-processor/ChibiOS//os/rt/include/chschd.h"
 209              		.file 13 "e-puck2_main-processor/ChibiOS//os/ext/CMSIS/include/core_cm4.h"
 210              		.file 14 "e-puck2_main-processor/ChibiOS//os/ext/CMSIS/ST/system_stm32f4xx.h"
 211              		.file 15 "e-puck2_main-processor/ChibiOS//os/ext/CMSIS/ST/stm32f407xx.h"
 212              		.file 16 "e-puck2_main-processor/ChibiOS//os/rt/ports/ARMCMx/chcore.h"
 213              		.file 17 "e-puck2_main-processor/ChibiOS//os/rt/ports/ARMCMx/chcore_v7m.h"
 214              		.file 18 "e-puck2_main-processor/ChibiOS//os/rt/include/chdebug.h"
 215              		.file 19 "e-puck2_main-processor/ChibiOS//os/rt/include/chtm.h"
 216              		.file 20 "e-puck2_main-processor/ChibiOS//os/rt/include/chstats.h"
 217              		.file 21 "e-puck2_main-processor/ChibiOS//os/rt/include/chsem.h"
 218              		.file 22 "e-puck2_main-processor/ChibiOS//os/rt/include/chmtx.h"
 219              		.file 23 "e-puck2_main-processor/ChibiOS//os/rt/include/chregistry.h"
 220              		.file 24 "e-puck2_main-processor/ChibiOS//os/rt/include/chevents.h"
ARM GAS  C:\Users\lucas\AppData\Local\Temp\ccB1TIua.s 			page 5


 221              		.file 25 "e-puck2_main-processor/ChibiOS//os/rt/include/chqueues.h"
 222              		.file 26 "e-puck2_main-processor/ChibiOS//os/rt/include/chstreams.h"
 223              		.file 27 "e-puck2_main-processor/ChibiOS//os/hal/ports/STM32/STM32F4xx/stm32_dma.h"
 224              		.file 28 "e-puck2_main-processor/ChibiOS//os/hal/include/hal_ioblock.h"
 225              		.file 29 "e-puck2_main-processor/ChibiOS//os/hal/ports/STM32/LLD/GPIOv2/pal_lld.h"
 226              		.file 30 "e-puck2_main-processor/ChibiOS//os/hal/include/adc.h"
 227              		.file 31 "e-puck2_main-processor/ChibiOS//os/hal/ports/STM32/STM32F4xx/adc_lld.h"
 228              		.file 32 "e-puck2_main-processor/ChibiOS//os/hal/include/can.h"
 229              		.file 33 "e-puck2_main-processor/ChibiOS//os/hal/ports/STM32/LLD/can_lld.h"
 230              		.file 34 "e-puck2_main-processor/ChibiOS//os/hal/include/dac.h"
 231              		.file 35 "e-puck2_main-processor/ChibiOS//os/hal/ports/STM32/LLD/DACv1/dac_lld.h"
 232              		.file 36 "e-puck2_main-processor/ChibiOS//os/hal/include/ext.h"
 233              		.file 37 "e-puck2_main-processor/ChibiOS//os/hal/ports/STM32/LLD/ext_lld.h"
 234              		.file 38 "e-puck2_main-processor/ChibiOS//os/hal/include/gpt.h"
 235              		.file 39 "e-puck2_main-processor/ChibiOS//os/hal/ports/STM32/LLD/TIMv1/gpt_lld.h"
 236              		.file 40 "e-puck2_main-processor/ChibiOS//os/hal/ports/STM32/LLD/TIMv1/stm32_tim.h"
 237              		.file 41 "e-puck2_main-processor/ChibiOS//os/hal/include/i2c.h"
 238              		.file 42 "e-puck2_main-processor/ChibiOS//os/hal/ports/STM32/LLD/I2Cv1/i2c_lld.h"
 239              		.file 43 "e-puck2_main-processor/ChibiOS//os/hal/include/i2s.h"
 240              		.file 44 "e-puck2_main-processor/ChibiOS//os/hal/ports/STM32/LLD/SPIv1/i2s_lld.h"
 241              		.file 45 "e-puck2_main-processor/ChibiOS//os/hal/include/pwm.h"
 242              		.file 46 "e-puck2_main-processor/ChibiOS//os/hal/ports/STM32/LLD/TIMv1/pwm_lld.h"
 243              		.file 47 "e-puck2_main-processor/ChibiOS//os/hal/include/serial.h"
 244              		.file 48 "e-puck2_main-processor/ChibiOS//os/hal/ports/STM32/LLD/USARTv1/serial_lld.h"
 245              		.file 49 "e-puck2_main-processor/ChibiOS//os/hal/include/sdc.h"
 246              		.file 50 "e-puck2_main-processor/ChibiOS//os/hal/ports/STM32/LLD/sdc_lld.h"
 247              		.file 51 "e-puck2_main-processor/ChibiOS//os/hal/include/spi.h"
 248              		.file 52 "e-puck2_main-processor/ChibiOS//os/hal/ports/STM32/LLD/SPIv1/spi_lld.h"
 249              		.file 53 "e-puck2_main-processor/ChibiOS//os/hal/include/usb.h"
 250              		.file 54 "e-puck2_main-processor/ChibiOS//os/hal/ports/STM32/LLD/OTGv1/usb_lld.h"
 251              		.file 55 "e-puck2_main-processor/ChibiOS//os/hal/ports/STM32/LLD/OTGv1/stm32_otg.h"
 252              		.file 56 "e-puck2_main-processor/ChibiOS//os/hal/include/serial_usb.h"
 253              		.file 57 "e-puck2_main-processor/src/usbcfg.h"
 254              		.file 58 "e-puck2_main-processor/ChibiOS_ext/os/hal/include/../ports/STM32/STM32F4xx/dcmi_lld.h"
 255              		.file 59 "c:\\users\\lucas\\desktop\\epfl\\microinformatique\\eclipse_e-puck2\\tools\\gcc-arm-none
 256              		.file 60 "e-puck2_main-processor/src/msgbus/messagebus.h"
 257              		.file 61 "e-puck2_main-processor/src/parameter/parameter.h"
 258              		.file 62 "./Inc/main.h"
 259              		.file 63 "./Inc/fft.h"
 260              		.file 64 "./Inc/audio_processing.h"
 261              		.file 65 "e-puck2_main-processor/ChibiOS//os/rt/include/chsys.h"
 262              		.file 66 "e-puck2_main-processor/ChibiOS//os/hal/include/hal.h"
 263              		.file 67 "e-puck2_main-processor/src/memory_protection.h"
 264              		.file 68 "e-puck2_main-processor/src/motors.h"
 265              		.file 69 "e-puck2_main-processor/src/audio/microphone.h"
 266              		.file 70 "e-puck2_main-processor/ChibiOS//os/ext/CMSIS/include/arm_math.h"
 267              		.file 71 "./Inc/communications.h"
 268              		.file 72 "e-puck2_main-processor/ChibiOS//os/rt/include/chthreads.h"